ccopy_reg
_reconstructor
p1
(c__main__
linear_regression
p2
c__builtin__
object
p3
NtRp4
(dp5
S'L'
g1
(csklearn.linear_model.base
LinearRegression
p6
g3
NtRp7
(dp8
S'normalize'
p9
I01
sS'n_jobs'
p10
I1
sS'rank_'
p11
I3
sS'fit_intercept'
p12
I01
sS'_residues'
p13
cnumpy.core.multiarray
_reconstruct
p14
(cnumpy
ndarray
p15
(I0
tS'b'
tRp16
(I1
(I1
tcnumpy
dtype
p17
(S'f8'
I0
I1
tRp18
(I3
S'<'
NNNI-1
I-1
I0
tbI00
S'Pr\x19\xe6l\xc0\x80@'
tbsS'coef_'
p19
g14
(g15
(I0
tS'b'
tRp20
(I1
(I1
I3
tg18
I00
S'\xa1\x97\xbe\x89;\xb2\xd9?3\x18Q\xbc\xab\x0e\x9f\xbf\x1ef\x84\xe6\xc6\xa2p?'
tbsS'copy_X'
p21
I01
sS'intercept_'
p22
g14
(g15
(I0
tS'b'
tRp23
(I1
(I1
tg18
I00
S'\xfb\xb1XK>\x92\xfd?'
tbsS'singular_'
p24
g14
(g15
(I0
tS'b'
tRp25
(I1
(I3
tg18
I00
S'\x02\x00\x00\x00\x00\x00\xf0?\x01\x00\x00\x00\x00\x00\xf0?\xf9\xff\xff\xff\xff\xff\xef?'
tbsbsb.