ccopy_reg
_reconstructor
p1
(csklearn.feature_extraction.text
TfidfVectorizer
p2
c__builtin__
object
p3
NtRp4
(dp5
S'decode_error'
p6
Vstrict
p7
sS'lowercase'
p8
I01
sS'stop_words'
p9
S'english'
p10
sS'vocabulary'
p11
NsS'tokenizer'
p12
c__main__
stem_tokenize
p13
sS'encoding'
p14
Vutf-8
p15
sS'token_pattern'
p16
V(?u)\u005cb\u005cw\u005cw+\u005cb
p17
sS'max_df'
p18
F1
sS'fixed_vocabulary_'
p19
I00
sS'analyzer'
p20
Vword
p21
sS'vocabulary_'
p22
(dp23
Vpeopl
p24
cnumpy.core.multiarray
scalar
p25
(cnumpy
dtype
p26
(S'i8'
I0
I1
tRp27
(I3
S'<'
NNNI-1
I-1
I0
tbS'\x01\x00\x00\x00\x00\x00\x00\x00'
tRp28
sVcomput
p29
g25
(g27
S'\x00\x00\x00\x00\x00\x00\x00\x00'
tRp30
ssS'binary'
p31
I00
sS'ngram_range'
p32
(I1
I1
tp33
sS'preprocessor'
p34
NsS'min_df'
p35
I1
sS'max_features'
p36
NsS'input'
p37
Vcontent
p38
sS'_tfidf'
p39
g1
(csklearn.feature_extraction.text
TfidfTransformer
p40
g3
NtRp41
(dp42
S'use_idf'
p43
I01
sS'smooth_idf'
p44
I01
sS'sublinear_tf'
p45
I00
sS'norm'
p46
Vl2
p47
sS'_idf_diag'
p48
g1
(cscipy.sparse.dia
dia_matrix
p49
g3
NtRp50
(dp51
S'data'
p52
cnumpy.core.multiarray
_reconstruct
p53
(cnumpy
ndarray
p54
(I0
tS'b'
tRp55
(I1
(I1
I2
tg26
(S'f8'
I0
I1
tRp56
(I3
S'<'
NNNI-1
I-1
I0
tbI00
S'\x06\xa3v\x88\x95)\xf0?\x14\x90\xed\xe6\xe1\t\xf1?'
tbsS'maxprint'
p57
I50
sS'_shape'
p58
(I2
I2
tp59
sS'offsets'
p60
g53
(g54
(I0
tS'b'
tRp61
(I1
(I1
tg26
(S'i4'
I0
I1
tRp62
(I3
S'<'
NNNI-1
I-1
I0
tbI00
S'\x00\x00\x00\x00'
tbsS'format'
p63
S'dia'
p64
sbsbsS'dtype'
p65
cnumpy
int64
p66
sS'stop_words_'
p67
c__builtin__
set
p68
((ltRp69
sS'strip_accents'
p70
Nsb.