ccopy_reg
_reconstructor
p1
(c__main__
linear_regression
p2
c__builtin__
object
p3
NtRp4
(dp5
S'L'
g1
(csklearn.linear_model.base
LinearRegression
p6
g3
NtRp7
(dp8
S'normalize'
p9
I01
sS'n_jobs'
p10
I1
sS'rank_'
p11
I3
sS'fit_intercept'
p12
I01
sS'_residues'
p13
cnumpy.core.multiarray
_reconstruct
p14
(cnumpy
ndarray
p15
(I0
tS'b'
tRp16
(I1
(I1
tcnumpy
dtype
p17
(S'f8'
I0
I1
tRp18
(I3
S'<'
NNNI-1
I-1
I0
tbI00
S'v\xb5;\xc9\xcf\xe8\x82@'
tbsS'coef_'
p19
g14
(g15
(I0
tS'b'
tRp20
(I1
(I1
I3
tg18
I00
S'\xff}\xdb\xb4\xec\xd0\xdb?\xe2\xdf)\xd8\xb8\x16\xa4\xbf\x02\xce\x02\x988u\xa1?'
tbsS'copy_X'
p21
I01
sS'intercept_'
p22
g14
(g15
(I0
tS'b'
tRp23
(I1
(I1
tg18
I00
S'\xdc\x8c\x95\xaf\xfd\xe7\xf6?'
tbsS'singular_'
p24
g14
(g15
(I0
tS'b'
tRp25
(I1
(I3
tg18
I00
S'\xfc\xff\xff\xff\xff\xff\xef?\xfa\xff\xff\xff\xff\xff\xef?\xfa\xff\xff\xff\xff\xff\xef?'
tbsbsb.