ccopy_reg
_reconstructor
p1
(csklearn.feature_extraction.text
TfidfVectorizer
p2
c__builtin__
object
p3
NtRp4
(dp5
S'decode_error'
p6
Vstrict
p7
sS'lowercase'
p8
I01
sS'stop_words'
p9
S'english'
p10
sS'vocabulary'
p11
NsS'tokenizer'
p12
c__main__
stem_tokenize
p13
sS'encoding'
p14
Vutf-8
p15
sS'token_pattern'
p16
V(?u)\u005cb\u005cw\u005cw+\u005cb
p17
sS'max_df'
p18
F1
sS'fixed_vocabulary_'
p19
I00
sS'analyzer'
p20
Vword
p21
sS'vocabulary_'
p22
(dp23
Vdirig
p24
cnumpy.core.multiarray
scalar
p25
(cnumpy
dtype
p26
(S'i8'
I0
I1
tRp27
(I3
S'<'
NNNI-1
I-1
I0
tbS'\x01\x00\x00\x00\x00\x00\x00\x00'
tRp28
sVbuild
p29
g25
(g27
S'\x00\x00\x00\x00\x00\x00\x00\x00'
tRp30
sVwa
p31
g25
(g27
S'\x02\x00\x00\x00\x00\x00\x00\x00'
tRp32
ssS'binary'
p33
I00
sS'ngram_range'
p34
(I1
I1
tp35
sS'preprocessor'
p36
NsS'min_df'
p37
I1
sS'max_features'
p38
NsS'input'
p39
Vcontent
p40
sS'_tfidf'
p41
g1
(csklearn.feature_extraction.text
TfidfTransformer
p42
g3
NtRp43
(dp44
S'use_idf'
p45
I01
sS'smooth_idf'
p46
I01
sS'sublinear_tf'
p47
I00
sS'norm'
p48
Vl2
p49
sS'_idf_diag'
p50
g1
(cscipy.sparse.dia
dia_matrix
p51
g3
NtRp52
(dp53
S'data'
p54
cnumpy.core.multiarray
_reconstruct
p55
(cnumpy
ndarray
p56
(I0
tS'b'
tRp57
(I1
(I1
I3
tg26
(S'f8'
I0
I1
tRp58
(I3
S'<'
NNNI-1
I-1
I0
tbI00
S'\xfc\xc8v\xe3\xd4\xb1\xf1?\xba\xd8\xb91\xa4k\xf1?\x15\xd1H\xb9GZ\xf1?'
tbsS'maxprint'
p59
I50
sS'_shape'
p60
(I3
I3
tp61
sS'offsets'
p62
g55
(g56
(I0
tS'b'
tRp63
(I1
(I1
tg26
(S'i4'
I0
I1
tRp64
(I3
S'<'
NNNI-1
I-1
I0
tbI00
S'\x00\x00\x00\x00'
tbsS'format'
p65
S'dia'
p66
sbsbsS'dtype'
p67
cnumpy
int64
p68
sS'stop_words_'
p69
c__builtin__
set
p70
((ltRp71
sS'strip_accents'
p72
Nsb.