ccopy_reg
_reconstructor
p1
(csklearn.feature_extraction.text
TfidfVectorizer
p2
c__builtin__
object
p3
NtRp4
(dp5
S'decode_error'
p6
Vstrict
p7
sS'lowercase'
p8
I01
sS'stop_words'
p9
S'english'
p10
sS'vocabulary'
p11
NsS'tokenizer'
p12
c__main__
stem_tokenize
p13
sS'encoding'
p14
Vutf-8
p15
sS'token_pattern'
p16
V(?u)\u005cb\u005cw\u005cw+\u005cb
p17
sS'max_df'
p18
F1
sS'fixed_vocabulary_'
p19
I00
sS'analyzer'
p20
Vword
p21
sS'vocabulary_'
p22
(dp23
Vwa
p24
cnumpy.core.multiarray
scalar
p25
(cnumpy
dtype
p26
(S'i8'
I0
I1
tRp27
(I3
S'<'
NNNI-1
I-1
I0
tbS'\x00\x00\x00\x00\x00\x00\x00\x00'
tRp28
ssS'binary'
p29
I00
sS'ngram_range'
p30
(I1
I1
tp31
sS'preprocessor'
p32
NsS'min_df'
p33
I1
sS'max_features'
p34
NsS'input'
p35
Vcontent
p36
sS'_tfidf'
p37
g1
(csklearn.feature_extraction.text
TfidfTransformer
p38
g3
NtRp39
(dp40
S'use_idf'
p41
I01
sS'smooth_idf'
p42
I01
sS'sublinear_tf'
p43
I00
sS'norm'
p44
Vl2
p45
sS'_idf_diag'
p46
g1
(cscipy.sparse.dia
dia_matrix
p47
g3
NtRp48
(dp49
S'data'
p50
cnumpy.core.multiarray
_reconstruct
p51
(cnumpy
ndarray
p52
(I0
tS'b'
tRp53
(I1
(I1
I1
tg26
(S'f8'
I0
I1
tRp54
(I3
S'<'
NNNI-1
I-1
I0
tbI00
S'\x06\x89\x81^+\xd7\xf0?'
tbsS'maxprint'
p55
I50
sS'_shape'
p56
(I1
I1
tp57
sS'offsets'
p58
g51
(g52
(I0
tS'b'
tRp59
(I1
(I1
tg26
(S'i4'
I0
I1
tRp60
(I3
S'<'
NNNI-1
I-1
I0
tbI00
S'\x00\x00\x00\x00'
tbsS'format'
p61
S'dia'
p62
sbsbsS'dtype'
p63
cnumpy
int64
p64
sS'stop_words_'
p65
c__builtin__
set
p66
((ltRp67
sS'strip_accents'
p68
Nsb.